#include <math.h>
#include <stdio.h>
#include <stdlib.h>
#include <string.h>

int main()
{
    int n,a;
	scanf("%d",&n);
	if(n-10000>0)
	{
		a=(n-n/10*10)*10000+(n/10-n/100*10)*1000+(n/100-n/1000*10)*100+(n/1000-n/10000*10)*10+n/10000;
	}
	if((n-10000<0)&&(n-1000>0))
	{
		a=(n-n/10*10)*1000+(n/10-n/100*10)*100+(n/100-n/1000*10)*10+n/1000;
	}
	if((n-1000<0)&&(n-100>0))
	{
		a=(n-n/10*10)*100+(n/10-n/100*10)*10+n/100;
	}
	if((n-100<0)&&(n-10>0))
	{
		a=(n-n/10*10)*10+n/10;
	}
	if(n-10<0)
	{
		a=n;
	}
	printf("%d",a);
    return 0;
}